; ModuleID = 'source-C-CXX/10/874.c'
source_filename = "source-C-CXX/10/874.c"
target datalayout = "e-m:e-p270:32:32-p271:32:32-p272:64:64-i64:64-f80:128-n8:16:32:64-S128"
target triple = "x86_64-pc-linux-gnu"

@.str = private unnamed_addr constant [9 x i8] c"%d %d %d\00", align 1
@.str.1 = private unnamed_addr constant [3 x i8] c"%d\00", align 1

; Function Attrs: nofree nounwind sspstrong uwtable
define dso_local void @main() local_unnamed_addr #0 {
  %1 = alloca i32, align 4
  %2 = alloca i32, align 4
  %3 = alloca i32, align 4
  %4 = bitcast i32* %1 to i8*
  call void @llvm.lifetime.start.p0i8(i64 4, i8* nonnull %4) #3
  %5 = bitcast i32* %2 to i8*
  call void @llvm.lifetime.start.p0i8(i64 4, i8* nonnull %5) #3
  %6 = bitcast i32* %3 to i8*
  call void @llvm.lifetime.start.p0i8(i64 4, i8* nonnull %6) #3
  %7 = call i32 (i8*, ...) @__isoc99_scanf(i8* getelementptr inbounds ([9 x i8], [9 x i8]* @.str, i64 0, i64 0), i32* nonnull %1, i32* nonnull %2, i32* nonnull %3)
  %8 = load i32, i32* %1, align 4, !tbaa !5
  %9 = and i32 %8, 3
  %10 = icmp eq i32 %9, 0
  %11 = srem i32 %8, 100
  %12 = icmp ne i32 %11, 0
  %13 = and i1 %10, %12
  %14 = srem i32 %8, 400
  %15 = icmp eq i32 %14, 0
  %16 = select i1 %13, i1 true, i1 %15
  %17 = load i32, i32* %2, align 4, !tbaa !5
  %18 = icmp eq i32 %17, 1
  %19 = load i32, i32* %3, align 4
  %20 = select i1 %18, i32 %19, i32 undef
  %21 = icmp eq i32 %17, 2
  %22 = add nsw i32 %19, 31
  %23 = select i1 %21, i32 %22, i32 %20
  %24 = icmp eq i32 %17, 3
  %25 = add nsw i32 %19, 59
  %26 = select i1 %24, i32 %25, i32 %23
  %27 = icmp eq i32 %17, 4
  %28 = add nsw i32 %19, 90
  %29 = select i1 %27, i32 %28, i32 %26
  %30 = icmp eq i32 %17, 5
  %31 = add nsw i32 %19, 120
  %32 = select i1 %30, i32 %31, i32 %29
  %33 = icmp eq i32 %17, 6
  %34 = add nsw i32 %19, 151
  %35 = select i1 %33, i32 %34, i32 %32
  %36 = icmp eq i32 %17, 7
  %37 = add nsw i32 %19, 181
  %38 = select i1 %36, i32 %37, i32 %35
  %39 = icmp eq i32 %17, 8
  %40 = add nsw i32 %19, 212
  %41 = select i1 %39, i32 %40, i32 %38
  %42 = icmp eq i32 %17, 9
  %43 = add nsw i32 %19, 243
  %44 = select i1 %42, i32 %43, i32 %41
  %45 = icmp eq i32 %17, 10
  %46 = add nsw i32 %19, 273
  %47 = select i1 %45, i32 %46, i32 %44
  %48 = icmp eq i32 %17, 11
  %49 = add nsw i32 %19, 304
  %50 = select i1 %48, i32 %49, i32 %47
  %51 = icmp eq i32 %17, 12
  %52 = select i1 %51, i32 346, i32 %50
  %53 = icmp sgt i32 %17, 2
  %54 = and i1 %53, %16
  %55 = zext i1 %54 to i32
  %56 = add nsw i32 %52, %55
  %57 = call i32 (i8*, ...) @printf(i8* nonnull dereferenceable(1) getelementptr inbounds ([3 x i8], [3 x i8]* @.str.1, i64 0, i64 0), i32 %56)
  call void @llvm.lifetime.end.p0i8(i64 4, i8* nonnull %6) #3
  call void @llvm.lifetime.end.p0i8(i64 4, i8* nonnull %5) #3
  call void @llvm.lifetime.end.p0i8(i64 4, i8* nonnull %4) #3
  ret void
}

; Function Attrs: argmemonly mustprogress nofree nosync nounwind willreturn
declare void @llvm.lifetime.start.p0i8(i64 immarg, i8* nocapture) #1

; Function Attrs: nofree nounwind
declare noundef i32 @__isoc99_scanf(i8* nocapture noundef readonly, ...) local_unnamed_addr #2

; Function Attrs: nofree nounwind
declare noundef i32 @printf(i8* nocapture noundef readonly, ...) local_unnamed_addr #2

; Function Attrs: argmemonly mustprogress nofree nosync nounwind willreturn
declare void @llvm.lifetime.end.p0i8(i64 immarg, i8* nocapture) #1


!llvm.module.flags = !{!0, !1, !2, !3}
!llvm.ident = !{!4}

!0 = !{i32 1, !"wchar_size", i32 4}
!1 = !{i32 7, !"PIC Level", i32 2}
!2 = !{i32 7, !"PIE Level", i32 2}
!3 = !{i32 7, !"uwtable", i32 1}
!4 = !{!"clang version 13.0.0"}
!5 = !{!6, !6, i64 0}
!6 = !{!"int", !7, i64 0}
!7 = !{!"omnipotent char", !8, i64 0}
!8 = !{!"Simple C/C++ TBAA"}
